; ModuleID = '17/1124.c'
source_filename = "17/1124.c"
target datalayout = "e-m:e-p270:32:32-p271:32:32-p272:64:64-i64:64-f80:128-n8:16:32:64-S128"
target triple = "x86_64-pc-linux-gnu"

@.str = private unnamed_addr constant [4 x i8] c"%s\0A\00", align 1
@.str.1 = private unnamed_addr constant [2 x i8] c"$\00", align 1
@.str.2 = private unnamed_addr constant [2 x i8] c"?\00", align 1
@.str.3 = private unnamed_addr constant [2 x i8] c" \00", align 1
@.str.4 = private unnamed_addr constant [2 x i8] c"\0A\00", align 1

; Function Attrs: noinline nounwind uwtable
define dso_local i32 @main() #0 {
  %1 = alloca i32, align 4
  %2 = alloca [100 x i8], align 16
  %3 = alloca i8, align 1
  %4 = alloca i32, align 4
  %5 = alloca i32, align 4
  %6 = alloca i32, align 4
  %7 = alloca i32, align 4
  %8 = alloca i32, align 4
  %9 = alloca i32, align 4
  %10 = alloca i32, align 4
  %11 = alloca [100 x i32], align 16
  %12 = alloca [100 x i32], align 16
  store i32 0, i32* %1, align 4
  br label %13

13:                                               ; preds = %171, %0
  %14 = getelementptr inbounds [100 x i8], [100 x i8]* %2, i64 0, i64 0
  %15 = call i32 (i8*, ...) bitcast (i32 (...)* @gets to i32 (i8*, ...)*)(i8* %14)
  %16 = getelementptr inbounds [100 x i8], [100 x i8]* %2, i64 0, i64 0
  %17 = load i8, i8* %16, align 16
  %18 = sext i8 %17 to i32
  %19 = icmp eq i32 %18, 10
  br i1 %19, label %20, label %21

20:                                               ; preds = %13
  br label %174

21:                                               ; preds = %13
  %22 = getelementptr inbounds [100 x i8], [100 x i8]* %2, i64 0, i64 0
  %23 = call i64 @strlen(i8* %22) #3
  %24 = trunc i64 %23 to i32
  store i32 %24, i32* %9, align 4
  store i32 0, i32* %4, align 4
  store i32 0, i32* %5, align 4
  store i32 0, i32* %6, align 4
  br label %25

25:                                               ; preds = %59, %21
  %26 = load i32, i32* %4, align 4
  %27 = load i32, i32* %9, align 4
  %28 = icmp slt i32 %26, %27
  br i1 %28, label %29, label %62

29:                                               ; preds = %25
  %30 = load i32, i32* %4, align 4
  %31 = sext i32 %30 to i64
  %32 = getelementptr inbounds [100 x i8], [100 x i8]* %2, i64 0, i64 %31
  %33 = load i8, i8* %32, align 1
  %34 = sext i8 %33 to i32
  %35 = icmp eq i32 %34, 40
  br i1 %35, label %36, label %43

36:                                               ; preds = %29
  %37 = load i32, i32* %4, align 4
  %38 = load i32, i32* %5, align 4
  %39 = sext i32 %38 to i64
  %40 = getelementptr inbounds [100 x i32], [100 x i32]* %11, i64 0, i64 %39
  store i32 %37, i32* %40, align 4
  %41 = load i32, i32* %5, align 4
  %42 = add nsw i32 %41, 1
  store i32 %42, i32* %5, align 4
  br label %58

43:                                               ; preds = %29
  %44 = load i32, i32* %4, align 4
  %45 = sext i32 %44 to i64
  %46 = getelementptr inbounds [100 x i8], [100 x i8]* %2, i64 0, i64 %45
  %47 = load i8, i8* %46, align 1
  %48 = sext i8 %47 to i32
  %49 = icmp eq i32 %48, 41
  br i1 %49, label %50, label %57

50:                                               ; preds = %43
  %51 = load i32, i32* %4, align 4
  %52 = load i32, i32* %6, align 4
  %53 = sext i32 %52 to i64
  %54 = getelementptr inbounds [100 x i32], [100 x i32]* %12, i64 0, i64 %53
  store i32 %51, i32* %54, align 4
  %55 = load i32, i32* %6, align 4
  %56 = add nsw i32 %55, 1
  store i32 %56, i32* %6, align 4
  br label %57

57:                                               ; preds = %50, %43
  br label %58

58:                                               ; preds = %57, %36
  br label %59

59:                                               ; preds = %58
  %60 = load i32, i32* %4, align 4
  %61 = add nsw i32 %60, 1
  store i32 %61, i32* %4, align 4
  br label %25

62:                                               ; preds = %25
  %63 = load i32, i32* %9, align 4
  %64 = sub nsw i32 %63, 1
  store i32 %64, i32* %4, align 4
  br label %65

65:                                               ; preds = %110, %62
  %66 = load i32, i32* %4, align 4
  %67 = icmp sge i32 %66, 0
  br i1 %67, label %68, label %113

68:                                               ; preds = %65
  %69 = load i32, i32* %5, align 4
  %70 = sub nsw i32 %69, 1
  store i32 %70, i32* %7, align 4
  br label %71

71:                                               ; preds = %106, %68
  %72 = load i32, i32* %7, align 4
  %73 = icmp sge i32 %72, 0
  br i1 %73, label %74, label %109

74:                                               ; preds = %71
  %75 = load i32, i32* %7, align 4
  %76 = sext i32 %75 to i64
  %77 = getelementptr inbounds [100 x i32], [100 x i32]* %11, i64 0, i64 %76
  %78 = load i32, i32* %77, align 4
  %79 = load i32, i32* %4, align 4
  %80 = icmp eq i32 %78, %79
  br i1 %80, label %81, label %105

81:                                               ; preds = %74
  store i32 0, i32* %10, align 4
  br label %82

82:                                               ; preds = %101, %81
  %83 = load i32, i32* %10, align 4
  %84 = load i32, i32* %6, align 4
  %85 = icmp slt i32 %83, %84
  br i1 %85, label %86, label %104

86:                                               ; preds = %82
  %87 = load i32, i32* %10, align 4
  %88 = sext i32 %87 to i64
  %89 = getelementptr inbounds [100 x i32], [100 x i32]* %12, i64 0, i64 %88
  %90 = load i32, i32* %89, align 4
  %91 = load i32, i32* %4, align 4
  %92 = icmp sgt i32 %90, %91
  br i1 %92, label %93, label %100

93:                                               ; preds = %86
  %94 = load i32, i32* %7, align 4
  %95 = sext i32 %94 to i64
  %96 = getelementptr inbounds [100 x i32], [100 x i32]* %11, i64 0, i64 %95
  store i32 -1, i32* %96, align 4
  %97 = load i32, i32* %10, align 4
  %98 = sext i32 %97 to i64
  %99 = getelementptr inbounds [100 x i32], [100 x i32]* %12, i64 0, i64 %98
  store i32 -1, i32* %99, align 4
  br label %104

100:                                              ; preds = %86
  br label %101

101:                                              ; preds = %100
  %102 = load i32, i32* %10, align 4
  %103 = add nsw i32 %102, 1
  store i32 %103, i32* %10, align 4
  br label %82

104:                                              ; preds = %93, %82
  br label %109

105:                                              ; preds = %74
  br label %106

106:                                              ; preds = %105
  %107 = load i32, i32* %7, align 4
  %108 = add nsw i32 %107, -1
  store i32 %108, i32* %7, align 4
  br label %71

109:                                              ; preds = %104, %71
  br label %110

110:                                              ; preds = %109
  %111 = load i32, i32* %4, align 4
  %112 = add nsw i32 %111, -1
  store i32 %112, i32* %4, align 4
  br label %65

113:                                              ; preds = %65
  %114 = getelementptr inbounds [100 x i8], [100 x i8]* %2, i64 0, i64 0
  %115 = call i32 (i8*, ...) @printf(i8* getelementptr inbounds ([4 x i8], [4 x i8]* @.str, i64 0, i64 0), i8* %114)
  store i32 0, i32* %4, align 4
  br label %116

116:                                              ; preds = %168, %113
  %117 = load i32, i32* %4, align 4
  %118 = load i32, i32* %9, align 4
  %119 = icmp slt i32 %117, %118
  br i1 %119, label %120, label %171

120:                                              ; preds = %116
  store i32 0, i32* %7, align 4
  br label %121

121:                                              ; preds = %135, %120
  %122 = load i32, i32* %7, align 4
  %123 = load i32, i32* %5, align 4
  %124 = icmp slt i32 %122, %123
  br i1 %124, label %125, label %138

125:                                              ; preds = %121
  %126 = load i32, i32* %7, align 4
  %127 = sext i32 %126 to i64
  %128 = getelementptr inbounds [100 x i32], [100 x i32]* %11, i64 0, i64 %127
  %129 = load i32, i32* %128, align 4
  %130 = load i32, i32* %4, align 4
  %131 = icmp eq i32 %129, %130
  br i1 %131, label %132, label %134

132:                                              ; preds = %125
  %133 = call i32 (i8*, ...) @printf(i8* getelementptr inbounds ([2 x i8], [2 x i8]* @.str.1, i64 0, i64 0))
  br label %138

134:                                              ; preds = %125
  br label %135

135:                                              ; preds = %134
  %136 = load i32, i32* %7, align 4
  %137 = add nsw i32 %136, 1
  store i32 %137, i32* %7, align 4
  br label %121

138:                                              ; preds = %132, %121
  %139 = load i32, i32* %7, align 4
  %140 = load i32, i32* %5, align 4
  %141 = icmp ne i32 %139, %140
  br i1 %141, label %142, label %143

142:                                              ; preds = %138
  br label %168

143:                                              ; preds = %138
  store i32 0, i32* %10, align 4
  br label %144

144:                                              ; preds = %158, %143
  %145 = load i32, i32* %10, align 4
  %146 = load i32, i32* %6, align 4
  %147 = icmp slt i32 %145, %146
  br i1 %147, label %148, label %161

148:                                              ; preds = %144
  %149 = load i32, i32* %10, align 4
  %150 = sext i32 %149 to i64
  %151 = getelementptr inbounds [100 x i32], [100 x i32]* %12, i64 0, i64 %150
  %152 = load i32, i32* %151, align 4
  %153 = load i32, i32* %4, align 4
  %154 = icmp eq i32 %152, %153
  br i1 %154, label %155, label %157

155:                                              ; preds = %148
  %156 = call i32 (i8*, ...) @printf(i8* getelementptr inbounds ([2 x i8], [2 x i8]* @.str.2, i64 0, i64 0))
  br label %161

157:                                              ; preds = %148
  br label %158

158:                                              ; preds = %157
  %159 = load i32, i32* %10, align 4
  %160 = add nsw i32 %159, 1
  store i32 %160, i32* %10, align 4
  br label %144

161:                                              ; preds = %155, %144
  %162 = load i32, i32* %10, align 4
  %163 = load i32, i32* %6, align 4
  %164 = icmp ne i32 %162, %163
  br i1 %164, label %165, label %166

165:                                              ; preds = %161
  br label %168

166:                                              ; preds = %161
  %167 = call i32 (i8*, ...) @printf(i8* getelementptr inbounds ([2 x i8], [2 x i8]* @.str.3, i64 0, i64 0))
  br label %168

168:                                              ; preds = %166, %165, %142
  %169 = load i32, i32* %4, align 4
  %170 = add nsw i32 %169, 1
  store i32 %170, i32* %4, align 4
  br label %116

171:                                              ; preds = %116
  %172 = call i32 (i8*, ...) @printf(i8* getelementptr inbounds ([2 x i8], [2 x i8]* @.str.4, i64 0, i64 0))
  %173 = getelementptr inbounds [100 x i8], [100 x i8]* %2, i64 0, i64 0
  store i8 10, i8* %173, align 16
  br label %13

174:                                              ; preds = %20
  %175 = load i32, i32* %1, align 4
  ret i32 %175
}

declare dso_local i32 @gets(...) #1

; Function Attrs: nounwind readonly
declare dso_local i64 @strlen(i8*) #2

declare dso_local i32 @printf(i8*, ...) #1


!llvm.module.flags = !{!0}
!llvm.ident = !{!1}

!0 = !{i32 1, !"wchar_size", i32 4}
!1 = !{!"clang version 10.0.0-4ubuntu1 "}
